; Function Attrs: mustprogress nofree norecurse nosync nounwind willreturn memory(read, inaccessiblemem: none) uwtable
define noundef i64 @_ZNK23colvarproxy_atom_groups26get_num_active_atom_groupsEv(ptr noundef nonnull readonly align 8 captures(none) dereferenceable(192) %0) local_unnamed_addr #18 align 2 {
  %2 = getelementptr inbounds nuw i8, ptr %0, i64 32
  %3 = getelementptr inbounds nuw i8, ptr %0, i64 40
  %4 = load ptr, ptr %3, align 8, !tbaa !38
  %5 = load ptr, ptr %2, align 8, !tbaa !20
  %.not8 = icmp eq ptr %4, %5
  br i1 %.not8, label %._crit_edge, label %.lr.ph.preheader

.lr.ph.preheader:                                 ; preds = %1
  %6 = ptrtoint ptr %4 to i64
  %7 = ptrtoint ptr %5 to i64
  %8 = sub i64 %6, %7
  %9 = ashr exact i64 %8, 3
  %umax = tail call i64 @llvm.umax.i64(i64 %9, i64 1)
  br label %.lr.ph

._crit_edge:                                      ; preds = %.lr.ph, %1
  %.05.lcssa = phi i64 [ 0, %1 ], [ %spec.select, %.lr.ph ]
  ret i64 %.05.lcssa

.lr.ph:                                           ; preds = %.lr.ph.preheader, %.lr.ph
  %.07 = phi i64 [ %13, %.lr.ph ], [ 0, %.lr.ph.preheader ]
  %.056 = phi i64 [ %spec.select, %.lr.ph ], [ 0, %.lr.ph.preheader ]
  %10 = getelementptr inbounds nuw i64, ptr %5, i64 %.07
  %11 = load i64, ptr %10, align 8, !tbaa !10
  %.not = icmp ne i64 %11, 0
  %12 = zext i1 %.not to i64
  %spec.select = add i64 %.056, %12
  %13 = add nuw i64 %.07, 1
  %exitcond.not = icmp eq i64 %13, %umax
  br i1 %exitcond.not, label %._crit_edge, label %.lr.ph, !llvm.loop !157
}